target datalayout = "e-m:e-p270:32:32-p271:32:32-p272:64:64-i64:64-i128:128-f80:128-n8:16:32:64-S128"
target triple = "x86_64-pc-linux-gnu"

%struct.darktable_t = type { %struct.dt_codepath_t, i32, i32, ptr, ptr, ptr, ptr, ptr, ptr, ptr, ptr, ptr, ptr, ptr, ptr, ptr, ptr, ptr, ptr, ptr, ptr, ptr, ptr, ptr, ptr, ptr, ptr, ptr, ptr, ptr, [64 x %struct.dt_pthread_mutex_t], %struct.dt_pthread_mutex_t, %struct.dt_pthread_mutex_t, %struct.dt_pthread_mutex_t, %struct.dt_pthread_mutex_t, %struct.dt_pthread_mutex_t, ptr, ptr, ptr, ptr, ptr, ptr, ptr, ptr, ptr, ptr, ptr, ptr, ptr, %struct.dt_lua_state_t, ptr, double, ptr, i32, [47 x i32], i32, i32, ptr, ptr, %struct.dt_sys_resources_t, %struct.dt_backthumb_t, %struct.dt_gimp_t }
%struct.dt_codepath_t = type { i8, [3 x i8] }
%struct.dt_pthread_mutex_t = type { %union.pthread_mutex_t }
%union.pthread_mutex_t = type { %struct.__pthread_mutex_s }
%struct.__pthread_mutex_s = type { i32, i32, i32, i32, i32, i16, i16, %struct.__pthread_internal_list }
%struct.__pthread_internal_list = type { ptr, ptr }
%struct.dt_lua_state_t = type { i32 }
%struct.dt_sys_resources_t = type { i64, i64, ptr, ptr, i32 }
%struct.dt_backthumb_t = type { double, double, i32, i32, i32, i32 }
%struct.dt_gimp_t = type { i32, ptr, ptr, i32, i32 }
%struct._GtkDarktableGradientSlider = type { %struct._GtkDrawingArea, ptr, i32, i32, i32, [10 x double], [10 x double], [10 x i32], double, double, [3 x double], i32, i32, i32, i32, i32, i32, i32, i32, i32, ptr }
%struct._GtkDrawingArea = type { %struct._GtkWidget, ptr }
%struct._GtkWidget = type { %struct._GObject, ptr }
%struct._GObject = type { %struct._GTypeInstance, i32, ptr }
%struct._GTypeInstance = type { ptr }
%struct._GTypeClass = type { i64 }
%struct.dt_develop_t = type { i32, i32, i32, ptr, double, double, i32, i32, i32, i32, i32, double, i32, i32, i32, ptr, ptr, [8 x i8], %struct.dt_image_t, i32, i32, %struct.dt_pthread_mutex_t, i32, ptr, i32, ptr, i32, ptr, ptr, i32, ptr, ptr, ptr, ptr, i32, i32, ptr, ptr, ptr, ptr, i32, i32, i32, float, float, ptr, i32, %struct.anon.5, %struct.dt_dev_chroma_t, %struct.anon.8, %struct.anon.9, %struct.anon.10, %struct.anon.11, %struct.anon.12, %struct.anon.13, ptr, ptr, %struct.dt_dev_viewport_t, %struct.dt_dev_viewport_t, i32, i32, i32, ptr, [8 x i8] }
%struct.dt_image_t = type { i32, i32, float, float, float, float, float, float, float, [64 x i8], [64 x i8], [128 x i8], [64 x i8], [64 x i8], [64 x i8], [64 x i8], i64, i32, %union.dt_image_correction_data_t, [64 x i8], [64 x i8], [64 x i8], [128 x i8], i32, [256 x i8], i32, i32, i32, i32, i32, i32, i32, i32, i32, i32, float, i32, i32, i32, i32, i32, i32, i64, i64, i64, i64, i32, [12 x i8], %struct.dt_iop_buffer_dsc_t, [9 x float], ptr, i32, i32, %struct.dt_image_raw_parameters_t, %struct.dt_image_geoloc_t, %struct._color_harmony_t, i16, [4 x i16], i32, i32, float, float, [4 x float], [4 x [3 x float]], [4 x float], ptr, ptr, i32, i32, [8 x i8] }
%union.dt_image_correction_data_t = type { %struct.anon.0 }
%struct.anon.0 = type { i32, float, [11 x float], [11 x float], [11 x float], [11 x float], [11 x float] }
%struct.dt_iop_buffer_dsc_t = type { i32, i32, i32, [6 x [6 x i8]], %struct.anon.3, [12 x i8], %struct.anon.4, [4 x float], i32, [12 x i8] }
%struct.anon.3 = type { i16, i16 }
%struct.anon.4 = type { i32, [12 x i8], [4 x float] }
%struct.dt_image_raw_parameters_t = type { i32 }
%struct.dt_image_geoloc_t = type { double, double, double }
%struct._color_harmony_t = type { i32, i32, i32 }
%struct.anon.5 = type { %struct.dt_dev_proxy_exposure_t, ptr, %struct.anon.6, %struct.anon.7 }
%struct.dt_dev_proxy_exposure_t = type { ptr, ptr, ptr, ptr }
%struct.anon.6 = type { ptr, ptr, ptr, ptr, ptr, ptr, ptr, ptr, ptr }
%struct.anon.7 = type { ptr, ptr, ptr, ptr, ptr }
%struct.dt_dev_chroma_t = type { ptr, ptr, [4 x double], [4 x double], [4 x double], i32 }
%struct.anon.8 = type { ptr, ptr, ptr }
%struct.anon.9 = type { ptr, ptr, i32, i32, float, float, i32 }
%struct.anon.10 = type { ptr, ptr, i32, i32, i32, float }
%struct.anon.11 = type { ptr }
%struct.anon.12 = type { ptr, i32 }
%struct.anon.13 = type { ptr, ptr, ptr }
%struct.dt_dev_viewport_t = type { ptr, i32, i32, i32, i32, i32, double, double, double, i32, i32, i32, float, float, float, ptr }
%struct.dt_dev_pixelpipe_t = type { %struct.dt_dev_pixelpipe_cache_t, i32, i64, ptr, i32, i32, float, i32, i32, [12 x i8], %struct.dt_iop_buffer_dsc_t, ptr, ptr, ptr, ptr, i32, i32, i32, i32, ptr, i64, i32, i32, float, float, float, i64, %struct.dt_pthread_mutex_t, %struct.dt_pthread_mutex_t, %struct.dt_pthread_mutex_t, i32, i32, i32, %struct.dt_dev_detail_mask_t, i32, i32, i32, i32, i32, i32, i32, i32, i32, i32, i32, i32, i32, i32, [8 x i8], %struct.dt_image_t, i32, ptr, i32, ptr, ptr, ptr, i32, ptr, i64, [8 x i8] }
%struct.dt_dev_pixelpipe_cache_t = type { i32, i64, i64, ptr, ptr, ptr, ptr, ptr, ptr, i64, i32, i64, i64, i32, i32, i32 }
%struct.dt_dev_detail_mask_t = type { %struct.dt_iop_roi_t, i64, ptr }
%struct.dt_iop_roi_t = type { i32, i32, i32, i32, float }

@_gradient_slider_get_type.static_g_define_type_id = internal global i64 0, align 8
@darktable = external global %struct.darktable_t, align 8
@.str.2 = private unnamed_addr constant [14 x i8] c"value-changed\00", align 1

; Function Attrs: nounwind uwtable
define i64 @_gradient_slider_get_type() #0 {
  %1 = alloca i32, align 4
  %2 = alloca i64, align 8
  %3 = alloca ptr, align 8
  %4 = alloca i64, align 8
  %5 = alloca i64, align 8
  call void @llvm.lifetime.start.p0(i64 8, ptr %2) #11
  call void @llvm.lifetime.start.p0(i64 8, ptr %3) #11
  store ptr @_gradient_slider_get_type.static_g_define_type_id, ptr %3, align 8, !tbaa !6
  %6 = load ptr, ptr %3, align 8, !tbaa !6
  %7 = load atomic i64, ptr %6 seq_cst, align 8
  store i64 %7, ptr %2, align 8
  %8 = load i64, ptr %2, align 8, !tbaa !11
  store i64 %8, ptr %4, align 8, !tbaa !11
  call void @llvm.lifetime.end.p0(i64 8, ptr %3) #11
  call void @llvm.lifetime.end.p0(i64 8, ptr %2) #11
  %9 = load i64, ptr %4, align 8, !tbaa !11
  %10 = icmp ne i64 %9, 0
  br i1 %10, label %14, label %11

11:                                               ; preds = %0
  %12 = call i32 @g_once_init_enter(ptr noundef @_gradient_slider_get_type.static_g_define_type_id)
  %13 = icmp ne i32 %12, 0
  br label %14

14:                                               ; preds = %11, %0
  %15 = phi i1 [ false, %0 ], [ %13, %11 ]
  %16 = zext i1 %15 to i32
  store i32 %16, ptr %1, align 4, !tbaa !13
  %17 = load i32, ptr %1, align 4, !tbaa !13
  %18 = icmp ne i32 %17, 0
  br i1 %18, label %19, label %22

19:                                               ; preds = %14
  call void @llvm.lifetime.start.p0(i64 8, ptr %5) #11
  %20 = call i64 @_gradient_slider_get_type_once()
  store i64 %20, ptr %5, align 8, !tbaa !11
  %21 = load i64, ptr %5, align 8, !tbaa !11
  call void @g_once_init_leave(ptr noundef @_gradient_slider_get_type.static_g_define_type_id, i64 noundef %21)
  call void @llvm.lifetime.end.p0(i64 8, ptr %5) #11
  br label %22

22:                                               ; preds = %19, %14
  %23 = load i64, ptr @_gradient_slider_get_type.static_g_define_type_id, align 8, !tbaa !11
  ret i64 %23
}

; Function Attrs: nounwind uwtable
define i64 @dtgtk_gradient_slider_get_type() #0 {
  %1 = call i64 @_gradient_slider_get_type()
  ret i64 %1
}

; Function Attrs: inlinehint nounwind uwtable
define internal ptr @DTGTK_GRADIENT_SLIDER(ptr noundef %0) #8 {
  %2 = alloca ptr, align 8
  store ptr %0, ptr %2, align 8, !tbaa !15
  %3 = load ptr, ptr %2, align 8, !tbaa !15
  %4 = call i64 @dtgtk_gradient_slider_get_type()
  %5 = call ptr @g_type_check_instance_cast(ptr noundef %3, i64 noundef %4)
  ret ptr %5
}

; Function Attrs: nounwind uwtable
define internal i32 @_gradient_slider_postponed_value_change(ptr noundef %0) #0 {
  %2 = alloca i32, align 4
  %3 = alloca ptr, align 8
  %4 = alloca ptr, align 8
  %5 = alloca i64, align 8
  %6 = alloca i32, align 4
  %7 = alloca i32, align 4
  %8 = alloca i32, align 4
  store ptr %0, ptr %3, align 8, !tbaa !15
  call void @llvm.lifetime.start.p0(i64 8, ptr %4) #11
  %9 = load ptr, ptr %3, align 8, !tbaa !15
  store ptr %9, ptr %4, align 8, !tbaa !205
  call void @llvm.lifetime.start.p0(i64 8, ptr %5) #11
  %10 = call i64 @gtk_widget_get_type() #12
  store i64 %10, ptr %5, align 8, !tbaa !11
  call void @llvm.lifetime.start.p0(i64 4, ptr %6) #11
  %11 = load ptr, ptr %4, align 8, !tbaa !205
  %12 = icmp ne ptr %11, null
  br i1 %12, label %14, label %13

13:                                               ; preds = %1
  store i32 0, ptr %6, align 4, !tbaa !13
  br label %33

14:                                               ; preds = %1
  %15 = load ptr, ptr %4, align 8, !tbaa !205
  %16 = getelementptr inbounds nuw %struct._GTypeInstance, ptr %15, i32 0, i32 0
  %17 = load ptr, ptr %16, align 8, !tbaa !207
  %18 = icmp ne ptr %17, null
  br i1 %18, label %19, label %28

19:                                               ; preds = %14
  %20 = load ptr, ptr %4, align 8, !tbaa !205
  %21 = getelementptr inbounds nuw %struct._GTypeInstance, ptr %20, i32 0, i32 0
  %22 = load ptr, ptr %21, align 8, !tbaa !207
  %23 = getelementptr inbounds nuw %struct._GTypeClass, ptr %22, i32 0, i32 0
  %24 = load i64, ptr %23, align 8, !tbaa !121
  %25 = load i64, ptr %5, align 8, !tbaa !11
  %26 = icmp eq i64 %24, %25
  br i1 %26, label %27, label %28

27:                                               ; preds = %19
  store i32 1, ptr %6, align 4, !tbaa !13
  br label %32

28:                                               ; preds = %19, %14
  %29 = load ptr, ptr %4, align 8, !tbaa !205
  %30 = load i64, ptr %5, align 8, !tbaa !11
  %31 = call i32 @g_type_check_instance_is_a(ptr noundef %29, i64 noundef %30) #14
  store i32 %31, ptr %6, align 4, !tbaa !13
  br label %32

32:                                               ; preds = %28, %27
  br label %33

33:                                               ; preds = %32, %13
  %34 = load i32, ptr %6, align 4, !tbaa !13
  store i32 %34, ptr %7, align 4, !tbaa !13
  call void @llvm.lifetime.end.p0(i64 4, ptr %6) #11
  call void @llvm.lifetime.end.p0(i64 8, ptr %5) #11
  call void @llvm.lifetime.end.p0(i64 8, ptr %4) #11
  %35 = load i32, ptr %7, align 4, !tbaa !13
  %36 = icmp ne i32 %35, 0
  br i1 %36, label %38, label %37

37:                                               ; preds = %33
  store i32 0, ptr %2, align 4
  br label %102

38:                                               ; preds = %33
  %39 = load ptr, ptr %3, align 8, !tbaa !15
  %40 = call ptr @DTGTK_GRADIENT_SLIDER(ptr noundef %39)
  %41 = getelementptr inbounds nuw %struct._GtkDarktableGradientSlider, ptr %40, i32 0, i32 14
  %42 = load i32, ptr %41, align 4, !tbaa !38
  %43 = icmp eq i32 %42, 1
  br i1 %43, label %44, label %50

44:                                               ; preds = %38
  %45 = load ptr, ptr %3, align 8, !tbaa !15
  %46 = call ptr @g_type_check_instance_cast(ptr noundef %45, i64 noundef 80)
  call void (ptr, ptr, ...) @g_signal_emit_by_name(ptr noundef %46, ptr noundef @.str.2)
  %47 = load ptr, ptr %3, align 8, !tbaa !15
  %48 = call ptr @DTGTK_GRADIENT_SLIDER(ptr noundef %47)
  %49 = getelementptr inbounds nuw %struct._GtkDarktableGradientSlider, ptr %48, i32 0, i32 14
  store i32 0, ptr %49, align 4, !tbaa !38
  br label %50

50:                                               ; preds = %44, %38
  %51 = load ptr, ptr %3, align 8, !tbaa !15
  %52 = call ptr @DTGTK_GRADIENT_SLIDER(ptr noundef %51)
  %53 = getelementptr inbounds nuw %struct._GtkDarktableGradientSlider, ptr %52, i32 0, i32 13
  %54 = load i32, ptr %53, align 8, !tbaa !39
  %55 = icmp ne i32 %54, 0
  br i1 %55, label %60, label %56

56:                                               ; preds = %50
  %57 = load ptr, ptr %3, align 8, !tbaa !15
  %58 = call ptr @DTGTK_GRADIENT_SLIDER(ptr noundef %57)
  %59 = getelementptr inbounds nuw %struct._GtkDarktableGradientSlider, ptr %58, i32 0, i32 19
  store i32 0, ptr %59, align 8, !tbaa !40
  br label %101

60:                                               ; preds = %50
  call void @llvm.lifetime.start.p0(i64 4, ptr %8) #11
  %61 = load ptr, ptr getelementptr inbounds nuw (%struct.darktable_t, ptr @darktable, i32 0, i32 9), align 8, !tbaa !155
  %62 = getelementptr inbounds nuw %struct.dt_develop_t, ptr %61, i32 0, i32 57
  %63 = getelementptr inbounds nuw %struct.dt_dev_viewport_t, ptr %62, i32 0, i32 15
  %64 = load ptr, ptr %63, align 16, !tbaa !156
  %65 = getelementptr inbounds nuw %struct.dt_dev_pixelpipe_t, ptr %64, i32 0, i32 44
  %66 = load i32, ptr %65, align 8, !tbaa !183
  %67 = mul i32 %66, 3
  %68 = udiv i32 %67, 2
  %69 = icmp ugt i32 %68, 50
  br i1 %69, label %70, label %71

70:                                               ; preds = %60
  br label %93

71:                                               ; preds = %60
  %72 = load ptr, ptr getelementptr inbounds nuw (%struct.darktable_t, ptr @darktable, i32 0, i32 9), align 8, !tbaa !155
  %73 = getelementptr inbounds nuw %struct.dt_develop_t, ptr %72, i32 0, i32 57
  %74 = getelementptr inbounds nuw %struct.dt_dev_viewport_t, ptr %73, i32 0, i32 15
  %75 = load ptr, ptr %74, align 16, !tbaa !156
  %76 = getelementptr inbounds nuw %struct.dt_dev_pixelpipe_t, ptr %75, i32 0, i32 44
  %77 = load i32, ptr %76, align 8, !tbaa !183
  %78 = mul i32 %77, 3
  %79 = udiv i32 %78, 2
  %80 = icmp ult i32 %79, 10
  br i1 %80, label %81, label %82

81:                                               ; preds = %71
  br label %91

82:                                               ; preds = %71
  %83 = load ptr, ptr getelementptr inbounds nuw (%struct.darktable_t, ptr @darktable, i32 0, i32 9), align 8, !tbaa !155
  %84 = getelementptr inbounds nuw %struct.dt_develop_t, ptr %83, i32 0, i32 57
  %85 = getelementptr inbounds nuw %struct.dt_dev_viewport_t, ptr %84, i32 0, i32 15
  %86 = load ptr, ptr %85, align 16, !tbaa !156
  %87 = getelementptr inbounds nuw %struct.dt_dev_pixelpipe_t, ptr %86, i32 0, i32 44
  %88 = load i32, ptr %87, align 8, !tbaa !183
  %89 = mul i32 %88, 3
  %90 = udiv i32 %89, 2
  br label %91

91:                                               ; preds = %82, %81
  %92 = phi i32 [ 10, %81 ], [ %90, %82 ]
  br label %93

93:                                               ; preds = %91, %70
  %94 = phi i32 [ 50, %70 ], [ %92, %91 ]
  store i32 %94, ptr %8, align 4, !tbaa !13
  %95 = load i32, ptr %8, align 4, !tbaa !13
  %96 = load ptr, ptr %3, align 8, !tbaa !15
  %97 = call i32 @g_timeout_add(i32 noundef %95, ptr noundef @_gradient_slider_postponed_value_change, ptr noundef %96)
  %98 = load ptr, ptr %3, align 8, !tbaa !15
  %99 = call ptr @DTGTK_GRADIENT_SLIDER(ptr noundef %98)
  %100 = getelementptr inbounds nuw %struct._GtkDarktableGradientSlider, ptr %99, i32 0, i32 19
  store i32 %97, ptr %100, align 8, !tbaa !40
  call void @llvm.lifetime.end.p0(i64 4, ptr %8) #11
  br label %101

101:                                              ; preds = %93, %56
  store i32 0, ptr %2, align 4
  br label %102

102:                                              ; preds = %101, %37
  %103 = load i32, ptr %2, align 4
  ret i32 %103
}