; Function Attrs: nounwind uwtable
define internal noundef i32 @_gradient_slider_postponed_value_change(ptr noundef %0) #0 {
  %2 = tail call i64 @gtk_widget_get_type() #15
  %.not = icmp eq ptr %0, null
  br i1 %.not, label %.critedge, label %3

3:                                                ; preds = %1
  %4 = load ptr, ptr %0, align 8, !tbaa !113
  %.not20 = icmp eq ptr %4, null
  br i1 %.not20, label %8, label %5

5:                                                ; preds = %3
  %6 = load i64, ptr %4, align 8, !tbaa !107
  %7 = icmp eq i64 %6, %2
  br i1 %7, label %.critedge24, label %8

8:                                                ; preds = %5, %3
  %9 = tail call i32 @g_type_check_instance_is_a(ptr noundef nonnull %0, i64 noundef %2) #17
  %10 = icmp eq i32 %9, 0
  br i1 %10, label %.critedge, label %.critedge24

.critedge24:                                      ; preds = %5, %8
  %11 = load atomic i64, ptr @_gradient_slider_get_type.static_g_define_type_id seq_cst, align 8
  %.not.i.i.i = icmp eq i64 %11, 0
  br i1 %.not.i.i.i, label %12, label %DTGTK_GRADIENT_SLIDER.exit

12:                                               ; preds = %.critedge24
  %13 = tail call i32 @g_once_init_enter(ptr noundef nonnull @_gradient_slider_get_type.static_g_define_type_id) #14
  %.not4.i.i.i = icmp eq i32 %13, 0
  br i1 %.not4.i.i.i, label %DTGTK_GRADIENT_SLIDER.exit, label %14

14:                                               ; preds = %12
  %15 = tail call fastcc i64 @_gradient_slider_get_type_once()
  tail call void @g_once_init_leave(ptr noundef nonnull @_gradient_slider_get_type.static_g_define_type_id, i64 noundef %15) #14
  br label %DTGTK_GRADIENT_SLIDER.exit

DTGTK_GRADIENT_SLIDER.exit:                       ; preds = %.critedge24, %12, %14
  %16 = load i64, ptr @_gradient_slider_get_type.static_g_define_type_id, align 8, !tbaa !6
  %17 = tail call ptr @g_type_check_instance_cast(ptr noundef nonnull %0, i64 noundef %16) #14
  %18 = getelementptr inbounds nuw i8, ptr %17, i64 316
  %19 = load i32, ptr %18, align 4, !tbaa !29
  %20 = icmp eq i32 %19, 1
  br i1 %20, label %21, label %31

21:                                               ; preds = %DTGTK_GRADIENT_SLIDER.exit
  %22 = tail call ptr @g_type_check_instance_cast(ptr noundef nonnull %0, i64 noundef 80) #14
  tail call void (ptr, ptr, ...) @g_signal_emit_by_name(ptr noundef %22, ptr noundef nonnull @.str.2) #14
  %23 = load atomic i64, ptr @_gradient_slider_get_type.static_g_define_type_id seq_cst, align 8
  %.not.i.i.i25 = icmp eq i64 %23, 0
  br i1 %.not.i.i.i25, label %24, label %DTGTK_GRADIENT_SLIDER.exit27

24:                                               ; preds = %21
  %25 = tail call i32 @g_once_init_enter(ptr noundef nonnull @_gradient_slider_get_type.static_g_define_type_id) #14
  %.not4.i.i.i26 = icmp eq i32 %25, 0
  br i1 %.not4.i.i.i26, label %DTGTK_GRADIENT_SLIDER.exit27, label %26

26:                                               ; preds = %24
  %27 = tail call fastcc i64 @_gradient_slider_get_type_once()
  tail call void @g_once_init_leave(ptr noundef nonnull @_gradient_slider_get_type.static_g_define_type_id, i64 noundef %27) #14
  br label %DTGTK_GRADIENT_SLIDER.exit27

DTGTK_GRADIENT_SLIDER.exit27:                     ; preds = %21, %24, %26
  %28 = load i64, ptr @_gradient_slider_get_type.static_g_define_type_id, align 8, !tbaa !6
  %29 = tail call ptr @g_type_check_instance_cast(ptr noundef nonnull %0, i64 noundef %28) #14
  %30 = getelementptr inbounds nuw i8, ptr %29, i64 316
  store i32 0, ptr %30, align 4, !tbaa !29
  br label %31

31:                                               ; preds = %DTGTK_GRADIENT_SLIDER.exit27, %DTGTK_GRADIENT_SLIDER.exit
  %32 = load atomic i64, ptr @_gradient_slider_get_type.static_g_define_type_id seq_cst, align 8
  %.not.i.i.i28 = icmp eq i64 %32, 0
  br i1 %.not.i.i.i28, label %33, label %DTGTK_GRADIENT_SLIDER.exit30

33:                                               ; preds = %31
  %34 = tail call i32 @g_once_init_enter(ptr noundef nonnull @_gradient_slider_get_type.static_g_define_type_id) #14
  %.not4.i.i.i29 = icmp eq i32 %34, 0
  br i1 %.not4.i.i.i29, label %DTGTK_GRADIENT_SLIDER.exit30, label %35

35:                                               ; preds = %33
  %36 = tail call fastcc i64 @_gradient_slider_get_type_once()
  tail call void @g_once_init_leave(ptr noundef nonnull @_gradient_slider_get_type.static_g_define_type_id, i64 noundef %36) #14
  br label %DTGTK_GRADIENT_SLIDER.exit30

DTGTK_GRADIENT_SLIDER.exit30:                     ; preds = %31, %33, %35
  %37 = load i64, ptr @_gradient_slider_get_type.static_g_define_type_id, align 8, !tbaa !6
  %38 = tail call ptr @g_type_check_instance_cast(ptr noundef nonnull %0, i64 noundef %37) #14
  %39 = getelementptr inbounds nuw i8, ptr %38, i64 312
  %40 = load i32, ptr %39, align 8, !tbaa !30
  %.not22 = icmp eq i32 %40, 0
  br i1 %.not22, label %41, label %45

41:                                               ; preds = %DTGTK_GRADIENT_SLIDER.exit30
  %42 = load atomic i64, ptr @_gradient_slider_get_type.static_g_define_type_id seq_cst, align 8
  %.not.i.i.i31 = icmp eq i64 %42, 0
  br i1 %.not.i.i.i31, label %43, label %.critedge.sink.split

43:                                               ; preds = %41
  %44 = tail call i32 @g_once_init_enter(ptr noundef nonnull @_gradient_slider_get_type.static_g_define_type_id) #14
  %.not4.i.i.i32 = icmp eq i32 %44, 0
  br i1 %.not4.i.i.i32, label %.critedge.sink.split, label %.critedge.sink.split.sink.split

45:                                               ; preds = %DTGTK_GRADIENT_SLIDER.exit30
  %46 = load ptr, ptr getelementptr inbounds nuw (i8, ptr @darktable, i64 64), align 8, !tbaa !135
  %47 = getelementptr inbounds nuw i8, ptr %46, i64 2704
  %48 = load ptr, ptr %47, align 16, !tbaa !136
  %49 = getelementptr inbounds nuw i8, ptr %48, i64 616
  %50 = load i32, ptr %49, align 8, !tbaa !163
  %51 = mul i32 %50, 3
  %52 = icmp ugt i32 %51, 101
  %53 = tail call i32 @llvm.umax.i32(i32 %51, i32 20)
  %spec.select = lshr i32 %53, 1
  %54 = select i1 %52, i32 50, i32 %spec.select
  %55 = tail call i32 @g_timeout_add(i32 noundef %54, ptr noundef nonnull @_gradient_slider_postponed_value_change, ptr noundef nonnull %0) #14
  %56 = load atomic i64, ptr @_gradient_slider_get_type.static_g_define_type_id seq_cst, align 8
  %.not.i.i.i34 = icmp eq i64 %56, 0
  br i1 %.not.i.i.i34, label %57, label %.critedge.sink.split

57:                                               ; preds = %45
  %58 = tail call i32 @g_once_init_enter(ptr noundef nonnull @_gradient_slider_get_type.static_g_define_type_id) #14
  %.not4.i.i.i35 = icmp eq i32 %58, 0
  br i1 %.not4.i.i.i35, label %.critedge.sink.split, label %.critedge.sink.split.sink.split

.critedge.sink.split.sink.split:                  ; preds = %57, %43
  %.sink.ph = phi i32 [ 0, %43 ], [ %55, %57 ]
  %59 = tail call fastcc i64 @_gradient_slider_get_type_once()
  tail call void @g_once_init_leave(ptr noundef nonnull @_gradient_slider_get_type.static_g_define_type_id, i64 noundef %59) #14
  br label %.critedge.sink.split

.critedge.sink.split:                             ; preds = %.critedge.sink.split.sink.split, %57, %45, %43, %41
  %.sink = phi i32 [ 0, %41 ], [ 0, %43 ], [ %55, %45 ], [ %55, %57 ], [ %.sink.ph, %.critedge.sink.split.sink.split ]
  %60 = load i64, ptr @_gradient_slider_get_type.static_g_define_type_id, align 8, !tbaa !6
  %61 = tail call ptr @g_type_check_instance_cast(ptr noundef nonnull %0, i64 noundef %60) #14
  %62 = getelementptr inbounds nuw i8, ptr %61, i64 336
  store i32 %.sink, ptr %62, align 8, !tbaa !31
  br label %.critedge

.critedge:                                        ; preds = %.critedge.sink.split, %1, %8
  ret i32 0
}